Certificate:
    Data:
        Version: 3 (0x2)
        Serial Number: 4097 (0x1001)
    Signature Algorithm: sha256WithRSAEncryption
        Issuer: C=CZ, ST=Czech Republic, L=Lhota, O=Somebody, CN=Somebody
        Validity
            Not Before: Jul 14 12:29:08 2015 GMT
            Not After : Mar 22 12:29:08 2029 GMT
        Subject: C=CZ, ST=Czech Republic, L=Lhota, O=Somebody, CN=*.example.cz
        Subject Public Key Info:
            Public Key Algorithm: rsaEncryption
                Public-Key: (4096 bit)
                Modulus:
                    00:b8:91:0f:8c:12:38:31:01:d1:38:00:60:9b:53:
                    e2:30:e8:52:44:69:40:d7:69:79:2f:d6:64:42:26:
                    15:42:36:ec:2f:c1:97:f1:79:b7:15:96:96:7b:00:
                    9d:78:ea:48:2e:d9:fb:1c:9f:b0:10:55:d7:8e:5e:
                    03:91:72:f5:fa:d3:36:de:14:da:02:ab:35:35:a2:
                    4a:5b:34:5a:3f:c7:7a:55:6a:aa:b8:a7:65:56:fb:
                    f9:e2:a4:4a:6b:84:a8:4c:3f:2e:31:40:ef:db:7e:
                    3a:60:a6:51:46:f4:6a:b9:65:09:93:77:75:eb:2e:
                    9f:b5:4d:e8:df:e6:b7:15:04:7e:54:40:d0:1a:00:
                    dc:76:c3:d6:e5:cd:31:1d:25:ce:bf:93:03:57:95:
                    01:d9:e5:81:c0:97:1e:75:98:e7:15:a4:1d:9c:41:
                    6b:6e:6f:97:dd:89:be:46:0a:e7:b8:61:ac:31:cb:
                    85:c7:a5:3b:4a:73:e2:03:98:56:cf:31:85:68:4a:
                    d4:82:bd:94:d9:3a:58:4a:51:9e:61:61:7c:2b:f8:
                    b1:d5:f7:5a:31:3c:15:80:cb:79:a4:a5:3a:03:bb:
                    44:58:60:ff:e9:4d:6c:6a:fb:12:ee:0d:b2:fd:07:
                    34:f7:c1:c7:0c:cf:33:0c:0d:7b:6c:01:6a:c3:03:
                    05:4a:5c:9a:15:24:51:9f:e1:b5:26:fe:ef:71:8c:
                    00:2a:6d:ec:04:27:7d:1f:d1:4a:8d:36:96:06:95:
                    33:ac:1e:83:65:2e:0c:d2:e6:01:b6:a8:48:48:03:
                    bc:e7:22:fa:10:d0:74:e0:2c:a5:05:29:f3:ec:31:
                    95:35:3e:b0:fd:95:fd:fb:59:81:29:ba:08:33:38:
                    95:e3:01:09:a7:44:1d:5e:03:b3:59:d8:23:37:e0:
                    90:06:8b:b5:ab:ec:3c:c3:b3:b0:3e:2f:9f:97:f2:
                    e8:9d:52:75:5f:ba:c0:81:f1:b1:24:eb:4a:6a:3e:
                    51:20:e0:13:f0:7f:af:d8:70:da:3f:c2:c5:8b:5c:
                    2c:84:60:2f:79:f1:57:2d:6e:63:9e:63:3f:b4:88:
                    c0:91:7c:6b:d7:ea:22:6b:50:e2:d1:02:24:20:17:
                    b5:e0:60:9f:f6:06:82:7d:0a:5e:3b:b0:18:59:95:
                    94:2a:ba:fd:44:9d:47:b7:20:5a:d6:7d:46:80:a4:
                    73:89:63:95:c2:37:a5:70:e3:60:61:f5:dc:1f:ea:
                    0d:e0:0f:6c:3f:a8:30:45:8f:2d:b9:2e:c0:2f:dd:
                    8e:ae:c0:14:ec:ac:74:b3:58:11:13:8c:b2:5b:90:
                    05:40:86:28:77:61:6e:49:4e:47:27:2b:67:73:b2:
                    ab:60:35
                Exponent: 65537 (0x10001)
        X509v3 extensions:
            X509v3 Basic Constraints: 
                CA:FALSE
            Netscape Comment: 
                OpenSSL Generated Certificate
            X509v3 Subject Key Identifier: 
                D1:9D:D0:74:4E:CD:B3:A6:0C:44:0F:A2:E2:21:FB:22:6B:BC:2C:A5
            X509v3 Authority Key Identifier: 
                keyid:72:06:A6:93:3C:6C:53:99:5A:5C:30:A5:94:EA:AA:07:63:E7:07:71

    Signature Algorithm: sha256WithRSAEncryption
         41:53:14:44:eb:d6:bf:0b:74:aa:7d:6d:84:e6:9a:13:3e:2c:
         87:fd:60:09:0c:ed:93:2e:eb:21:54:ca:18:a3:f7:20:61:a8:
         71:5f:d0:ab:ca:f5:c7:25:95:d0:e1:1b:a3:aa:92:6a:b3:0b:
         e5:db:0f:0c:72:97:98:53:42:01:cc:c9:76:0e:99:4c:25:bd:
         36:e4:63:dc:76:7d:90:55:c6:0e:42:e7:8c:a6:4d:3d:85:a9:
         c2:47:ba:4a:0f:b5:d8:12:ab:0d:9e:f5:ab:a3:84:47:f8:23:
         9d:7d:15:71:39:75:35:5c:55:3b:f0:6c:28:ce:d9:c3:1c:38:
         c9:15:06:e9:8f:e7:fa:44:ed:df:76:19:c1:ea:05:f1:94:bf:
         da:38:1c:85:d6:b0:e3:fc:07:27:9e:bf:8a:7a:ca:a6:01:35:
         75:e1:ad:b7:6a:22:81:45:e6:e3:88:87:d5:1f:98:22:1b:0e:
         32:9c:f5:c0:9b:c4:e1:8e:d1:aa:7e:b3:5b:8f:68:8b:e4:92:
         f4:bb:d8:97:52:16:2c:d3:98:43:2d:9c:e2:c3:9a:df:88:72:
         45:d3:b8:5a:db:af:9f:07:d8:8f:e3:2e:f4:f2:b8:56:91:8a:
         df:c2:9f:56:4f:cc:87:6d:01:40:e7:6c:67:f7:07:e5:17:28:
         24:14:55:01:04:79:6c:32:cb:ee:06:7c:e7:31:ce:a9:2b:80:
         22:57:23:ad:0c:ee:4b:8d:6a:5e:04:0f:bf:40:ac:3d:72:33:
         eb:34:04:fd:c4:ae:d1:f0:55:98:da:6a:62:43:1c:00:bb:b9:
         00:d4:6d:88:ce:f7:0e:e7:a9:08:da:fd:89:8f:f9:54:f7:cd:
         75:8a:17:4d:68:83:e3:d6:40:68:8b:18:fa:09:50:0b:2a:07:
         a6:2d:69:5c:53:b1:78:8f:91:4c:91:51:84:e9:ce:ef:31:79:
         d7:b9:5e:e8:48:2e:c0:1e:51:8b:2d:81:56:50:df:03:86:a7:
         67:ac:0f:62:78:78:e9:41:df:d4:54:e0:95:f0:ea:38:3c:16:
         70:e0:5d:34:cc:f8:f4:79:e4:82:05:ce:e2:36:c5:a2:0d:87:
         23:67:c9:37:e2:b0:19:e2:9c:46:f2:80:fe:c7:0f:fc:31:09:
         40:91:67:26:fe:42:03:9a:f0:e3:f3:76:bc:69:ea:01:7f:28:
         b0:af:37:78:4e:49:71:43:e9:14:3b:2c:bb:1c:49:bf:04:2b:
         77:04:d3:56:ae:ea:0a:77:f1:94:e2:90:78:95:fd:7b:04:80:
         dc:5d:e6:dc:96:8c:6d:34:22:ed:58:65:ac:39:83:3c:a4:c7:
         5b:4b:c4:3f:54:b1:bd:d0
-----BEGIN CERTIFICATE-----
MIIFszCCA5ugAwIBAgICEAEwDQYJKoZIhvcNAQELBQAwXDELMAkGA1UEBhMCQ1ox
FzAVBgNVBAgMDkN6ZWNoIFJlcHVibGljMQ4wDAYDVQQHDAVMaG90YTERMA8GA1UE
CgwIU29tZWJvZHkxETAPBgNVBAMMCFNvbWVib2R5MB4XDTE1MDcxNDEyMjkwOFoX
DTI5MDMyMjEyMjkwOFowYDELMAkGA1UEBhMCQ1oxFzAVBgNVBAgMDkN6ZWNoIFJl
cHVibGljMQ4wDAYDVQQHDAVMaG90YTERMA8GA1UECgwIU29tZWJvZHkxFTATBgNV
BAMMDCouZXhhbXBsZS5jejCCAiIwDQYJKoZIhvcNAQEBBQADggIPADCCAgoCggIB
ALiRD4wSODEB0TgAYJtT4jDoUkRpQNdpeS/WZEImFUI27C/Bl/F5txWWlnsAnXjq
SC7Z+xyfsBBV145eA5Fy9frTNt4U2gKrNTWiSls0Wj/HelVqqrinZVb7+eKkSmuE
qEw/LjFA79t+OmCmUUb0arllCZN3desun7VN6N/mtxUEflRA0BoA3HbD1uXNMR0l
zr+TA1eVAdnlgcCXHnWY5xWkHZxBa25vl92JvkYK57hhrDHLhcelO0pz4gOYVs8x
hWhK1IK9lNk6WEpRnmFhfCv4sdX3WjE8FYDLeaSlOgO7RFhg/+lNbGr7Eu4Nsv0H
NPfBxwzPMwwNe2wBasMDBUpcmhUkUZ/htSb+73GMACpt7AQnfR/RSo02lgaVM6we
g2UuDNLmAbaoSEgDvOci+hDQdOAspQUp8+wxlTU+sP2V/ftZgSm6CDM4leMBCadE
HV4Ds1nYIzfgkAaLtavsPMOzsD4vn5fy6J1SdV+6wIHxsSTrSmo+USDgE/B/r9hw
2j/CxYtcLIRgL3nxVy1uY55jP7SIwJF8a9fqImtQ4tECJCAXteBgn/YGgn0KXjuw
GFmVlCq6/USdR7cgWtZ9RoCkc4ljlcI3pXDjYGH13B/qDeAPbD+oMEWPLbkuwC/d
jq7AFOysdLNYEROMsluQBUCGKHdhbklORycrZ3Oyq2A1AgMBAAGjezB5MAkGA1Ud
EwQCMAAwLAYJYIZIAYb4QgENBB8WHU9wZW5TU0wgR2VuZXJhdGVkIENlcnRpZmlj
YXRlMB0GA1UdDgQWBBTRndB0Ts2zpgxED6LiIfsia7wspTAfBgNVHSMEGDAWgBRy
BqaTPGxTmVpcMKWU6qoHY+cHcTANBgkqhkiG9w0BAQsFAAOCAgEAQVMUROvWvwt0
qn1thOaaEz4sh/1gCQztky7rIVTKGKP3IGGocV/Qq8r1xyWV0OEbo6qSarML5dsP
DHKXmFNCAczJdg6ZTCW9NuRj3HZ9kFXGDkLnjKZNPYWpwke6Sg+12BKrDZ71q6OE
R/gjnX0VcTl1NVxVO/BsKM7Zwxw4yRUG6Y/n+kTt33YZweoF8ZS/2jgchdaw4/wH
J56/inrKpgE1deGtt2oigUXm44iH1R+YIhsOMpz1wJvE4Y7Rqn6zW49oi+SS9LvY
l1IWLNOYQy2c4sOa34hyRdO4WtuvnwfYj+Mu9PK4VpGK38KfVk/Mh20BQOdsZ/cH
5RcoJBRVAQR5bDLL7gZ85zHOqSuAIlcjrQzuS41qXgQPv0CsPXIz6zQE/cSu0fBV
mNpqYkMcALu5ANRtiM73DuepCNr9iY/5VPfNdYoXTWiD49ZAaIsY+glQCyoHpi1p
XFOxeI+RTJFRhOnO7zF517le6EguwB5Riy2BVlDfA4anZ6wPYnh46UHf1FTglfDq
ODwWcOBdNMz49HnkggXO4jbFog2HI2fJN+KwGeKcRvKA/scP/DEJQJFnJv5CA5rw
4/N2vGnqAX8osK83eE5JcUPpFDssuxxJvwQrdwTTVq7qCnfxlOKQeJX9ewSA3F3m
3JaMbTQi7VhlrDmDPKTHW0vEP1SxvdA=
-----END CERTIFICATE-----
