Certificate:
    Data:
        Version: 3 (0x2)
        Serial Number: 4096 (0x1000)
    Signature Algorithm: sha256WithRSAEncryption
        Issuer: C=CZ, ST=Czech Republic, L=Lhota, O=Somebody, CN=Somebody
        Validity
            Not Before: Jul 14 12:27:50 2015 GMT
            Not After : Mar 22 12:27:50 2029 GMT
        Subject: C=CZ, ST=Czech Republic, L=Lhota, O=Somebody, CN=*.example.com
        Subject Public Key Info:
            Public Key Algorithm: rsaEncryption
                Public-Key: (4096 bit)
                Modulus:
                    00:d6:c4:34:d7:d6:19:a8:c4:ba:1b:12:c1:c7:88:
                    0a:48:fb:d1:1f:92:b2:e2:02:85:6e:25:c6:82:67:
                    2d:45:35:b5:ad:da:27:4f:09:f1:e2:12:5e:4e:4b:
                    e3:40:f9:25:86:7e:c9:c8:f0:4f:2a:83:c9:5b:76:
                    43:8e:22:b4:56:26:c6:40:dd:a6:fe:26:d6:f6:b7:
                    e6:8a:9f:ac:f6:e6:aa:8f:9e:f3:3d:ea:71:0e:f2:
                    5e:ec:94:40:8f:fe:40:9b:66:a9:6c:5b:97:c9:35:
                    13:d5:28:53:56:22:a1:e0:27:43:3b:76:42:f3:41:
                    8a:6f:5f:92:dd:90:7f:ee:5e:3d:4a:a7:fd:72:20:
                    29:09:a2:90:d3:a7:2d:70:c3:ab:8a:c6:e8:6d:04:
                    e0:a3:0c:91:c1:c0:86:f6:2e:f3:96:d8:6b:f0:72:
                    9c:ad:b7:0e:9c:9b:75:5f:07:49:ff:a2:56:95:7d:
                    ce:42:5a:33:b8:32:67:95:c1:de:98:b1:c0:db:a9:
                    4f:ec:b3:28:c6:98:f6:2a:a4:21:64:a1:b0:db:b9:
                    7d:a7:26:2a:d1:3c:e5:cb:a2:2a:2f:7e:f1:df:bb:
                    23:06:76:01:85:1a:48:59:c8:3c:ed:6a:8f:16:a1:
                    4c:91:f1:ce:87:28:3c:a0:e1:7e:e5:83:71:9a:af:
                    b2:97:92:ad:47:41:b5:29:b7:c7:cb:e2:eb:d8:61:
                    af:5f:ff:0c:ef:74:af:01:ad:fe:08:72:6f:95:ff:
                    ba:95:06:0b:8e:ea:09:e9:19:33:3b:9e:a9:13:df:
                    3c:cb:61:97:2c:05:22:0d:41:d3:53:31:b8:f2:3d:
                    c9:06:3f:11:6e:1b:ef:d4:cb:fd:7d:90:a8:63:08:
                    c0:25:b9:3f:0d:b0:9d:63:a8:d8:2e:3b:34:03:f8:
                    f9:6b:b1:e5:6c:9a:3d:2d:f5:c3:4f:22:25:13:03:
                    02:15:c9:dc:49:03:bf:fc:90:bc:18:dd:3c:60:05:
                    71:e7:4f:6e:b8:c7:c7:d2:12:c2:b9:a4:c2:64:aa:
                    73:f0:2e:20:05:d8:5c:97:84:92:83:02:7e:81:43:
                    06:62:0a:a1:f7:c3:bb:02:c5:d4:ce:8a:88:88:4c:
                    42:0e:47:0f:78:93:e1:27:42:14:dd:6e:d3:1b:31:
                    d0:da:d5:3e:66:7e:6b:d8:e5:a1:8c:f1:2c:9c:f5:
                    f0:08:f8:13:42:43:5b:6c:ce:5d:ff:7b:02:a7:9b:
                    13:ab:e2:d5:00:b8:a4:fc:57:b9:6a:bc:8c:88:14:
                    28:f4:c0:51:0a:84:26:10:56:56:a2:5e:27:22:32:
                    74:96:e9:ad:9d:51:77:b6:73:f6:8f:26:54:fc:8b:
                    7e:a6:89
                Exponent: 65537 (0x10001)
        X509v3 extensions:
            X509v3 Basic Constraints: 
                CA:FALSE
            Netscape Comment: 
                OpenSSL Generated Certificate
            X509v3 Subject Key Identifier: 
                6A:BE:BB:A7:3A:FD:D5:CB:A9:94:EC:B9:04:21:59:D5:29:85:BC:91
            X509v3 Authority Key Identifier: 
                keyid:72:06:A6:93:3C:6C:53:99:5A:5C:30:A5:94:EA:AA:07:63:E7:07:71

    Signature Algorithm: sha256WithRSAEncryption
         73:53:77:87:0e:17:d0:f1:39:a5:88:6e:1f:3c:89:64:65:2e:
         ee:64:ef:a0:c5:32:08:be:30:33:54:81:10:14:89:04:1d:67:
         72:ab:5b:9a:dc:e3:84:4e:f6:e3:59:44:ba:8f:f9:05:df:9d:
         25:f2:f8:62:67:47:39:ab:92:92:52:34:40:e9:5b:b2:13:2a:
         de:8c:7d:f4:6e:7b:ff:64:a1:62:89:40:07:79:32:33:ee:92:
         99:9e:7c:99:8e:36:4a:9d:f2:b2:47:78:c7:80:2f:31:84:d6:
         15:fb:fa:b7:14:1d:9f:f7:9b:b0:d7:c4:2b:c2:6f:6a:44:10:
         bd:13:40:b7:69:42:bb:d6:7c:20:5c:07:30:25:41:c2:d7:3a:
         55:89:c2:15:18:16:57:ef:1e:93:b3:39:47:dc:da:73:ca:2d:
         59:cd:88:2a:e4:bc:d9:35:3c:f0:8d:c1:df:66:54:7f:b4:fb:
         1e:d6:33:ca:be:b5:91:81:bf:04:f1:33:5c:de:91:1e:37:ad:
         e1:81:ea:dd:fd:e2:12:76:cb:cf:12:86:53:46:1f:9d:f3:19:
         58:1a:c3:e8:5e:d4:42:6d:df:07:87:44:e8:21:ff:d0:b8:3c:
         3b:0a:12:c8:bc:d5:98:99:3e:20:14:26:26:65:2c:2b:8c:93:
         1a:3f:c5:eb:80:c7:52:48:d5:f2:5f:3c:19:8a:9d:d5:4d:6f:
         0e:98:10:84:a9:56:5c:7f:61:a6:a4:6b:09:d5:9f:4c:eb:48:
         33:46:9d:52:63:37:97:a2:31:86:55:b3:e6:b6:3b:fb:4c:b9:
         dd:e3:da:80:63:ee:64:1d:ab:a8:df:f5:ef:bc:f9:66:c3:cd:
         c4:04:6b:9c:0d:ef:2d:f7:11:7a:b3:34:3d:52:f1:44:01:ff:
         53:0d:35:c1:98:e4:14:27:ed:00:47:67:31:c4:b8:bd:6b:b1:
         54:ca:df:2f:44:37:98:dd:54:27:32:ea:24:2f:62:75:70:2d:
         26:f9:ec:3f:d9:68:53:38:51:4a:ad:54:5c:5d:61:06:86:c3:
         30:06:73:17:b0:b6:66:e5:d2:b0:19:30:04:b4:d5:0f:d0:a6:
         e3:85:31:ca:d8:9d:2f:6c:43:81:41:2c:f8:3e:64:17:55:ba:
         ac:d2:10:a0:fe:04:b9:43:ab:61:7d:a4:6b:e1:33:84:dc:9c:
         4c:c6:e7:31:3e:8d:3a:1f:e9:30:56:43:c3:25:0a:a1:5b:68:
         f5:66:8a:97:a4:88:7d:2e:dc:21:f9:88:0c:5f:1a:8e:b9:0f:
         4a:f1:3b:1e:d8:22:2f:5d:e3:a2:0e:42:be:62:57:60:a2:7e:
         f7:08:6a:82:b2:50:a3:af
-----BEGIN CERTIFICATE-----
MIIFtDCCA5ygAwIBAgICEAAwDQYJKoZIhvcNAQELBQAwXDELMAkGA1UEBhMCQ1ox
FzAVBgNVBAgMDkN6ZWNoIFJlcHVibGljMQ4wDAYDVQQHDAVMaG90YTERMA8GA1UE
CgwIU29tZWJvZHkxETAPBgNVBAMMCFNvbWVib2R5MB4XDTE1MDcxNDEyMjc1MFoX
DTI5MDMyMjEyMjc1MFowYTELMAkGA1UEBhMCQ1oxFzAVBgNVBAgMDkN6ZWNoIFJl
cHVibGljMQ4wDAYDVQQHDAVMaG90YTERMA8GA1UECgwIU29tZWJvZHkxFjAUBgNV
BAMMDSouZXhhbXBsZS5jb20wggIiMA0GCSqGSIb3DQEBAQUAA4ICDwAwggIKAoIC
AQDWxDTX1hmoxLobEsHHiApI+9EfkrLiAoVuJcaCZy1FNbWt2idPCfHiEl5OS+NA
+SWGfsnI8E8qg8lbdkOOIrRWJsZA3ab+Jtb2t+aKn6z25qqPnvM96nEO8l7slECP
/kCbZqlsW5fJNRPVKFNWIqHgJ0M7dkLzQYpvX5LdkH/uXj1Kp/1yICkJopDTpy1w
w6uKxuhtBOCjDJHBwIb2LvOW2Gvwcpyttw6cm3VfB0n/olaVfc5CWjO4MmeVwd6Y
scDbqU/ssyjGmPYqpCFkobDbuX2nJirRPOXLoiovfvHfuyMGdgGFGkhZyDztao8W
oUyR8c6HKDyg4X7lg3Gar7KXkq1HQbUpt8fL4uvYYa9f/wzvdK8Brf4Icm+V/7qV
BguO6gnpGTM7nqkT3zzLYZcsBSINQdNTMbjyPckGPxFuG+/Uy/19kKhjCMAluT8N
sJ1jqNguOzQD+PlrseVsmj0t9cNPIiUTAwIVydxJA7/8kLwY3TxgBXHnT264x8fS
EsK5pMJkqnPwLiAF2FyXhJKDAn6BQwZiCqH3w7sCxdTOioiITEIORw94k+EnQhTd
btMbMdDa1T5mfmvY5aGM8Syc9fAI+BNCQ1tszl3/ewKnmxOr4tUAuKT8V7lqvIyI
FCj0wFEKhCYQVlaiXiciMnSW6a2dUXe2c/aPJlT8i36miQIDAQABo3sweTAJBgNV
HRMEAjAAMCwGCWCGSAGG+EIBDQQfFh1PcGVuU1NMIEdlbmVyYXRlZCBDZXJ0aWZp
Y2F0ZTAdBgNVHQ4EFgQUar67pzr91cuplOy5BCFZ1SmFvJEwHwYDVR0jBBgwFoAU
cgamkzxsU5laXDCllOqqB2PnB3EwDQYJKoZIhvcNAQELBQADggIBAHNTd4cOF9Dx
OaWIbh88iWRlLu5k76DFMgi+MDNUgRAUiQQdZ3KrW5rc44RO9uNZRLqP+QXfnSXy
+GJnRzmrkpJSNEDpW7ITKt6MffRue/9koWKJQAd5MjPukpmefJmONkqd8rJHeMeA
LzGE1hX7+rcUHZ/3m7DXxCvCb2pEEL0TQLdpQrvWfCBcBzAlQcLXOlWJwhUYFlfv
HpOzOUfc2nPKLVnNiCrkvNk1PPCNwd9mVH+0+x7WM8q+tZGBvwTxM1zekR43reGB
6t394hJ2y88ShlNGH53zGVgaw+he1EJt3weHROgh/9C4PDsKEsi81ZiZPiAUJiZl
LCuMkxo/xeuAx1JI1fJfPBmKndVNbw6YEISpVlx/YaakawnVn0zrSDNGnVJjN5ei
MYZVs+a2O/tMud3j2oBj7mQdq6jf9e+8+WbDzcQEa5wN7y33EXqzND1S8UQB/1MN
NcGY5BQn7QBHZzHEuL1rsVTK3y9EN5jdVCcy6iQvYnVwLSb57D/ZaFM4UUqtVFxd
YQaGwzAGcxewtmbl0rAZMAS01Q/QpuOFMcrYnS9sQ4FBLPg+ZBdVuqzSEKD+BLlD
q2F9pGvhM4TcnEzG5zE+jTof6TBWQ8MlCqFbaPVmipekiH0u3CH5iAxfGo65D0rx
Ox7YIi9d46IOQr5iV2CifvcIaoKyUKOv
-----END CERTIFICATE-----
